target datalayout = "e-m:e-p270:32:32-p271:32:32-p272:64:64-i64:64-i128:128-f80:128-n8:16:32:64-S128"
target triple = "x86_64-pc-linux-gnu"

%struct.RBasic = type { i64, i64 }
%struct.RString = type { %struct.RBasic, i64, %union.anon.21 }
%union.anon.21 = type { %struct.anon.22 }
%struct.anon.22 = type { ptr, %union.anon.23 }
%union.anon.23 = type { i64 }
%struct.anon.24 = type { [1 x i8] }

@stderr = external global ptr, align 8
@.str.21 = private unnamed_addr constant [12 x i8] c"%s %.*s:%u\0A\00", align 1
@__func__.rb_yjit_dump_iseq_loc = private unnamed_addr constant [22 x i8] c"rb_yjit_dump_iseq_loc\00", align 1

; Function Attrs: inlinehint nounwind sspstrong willreturn memory(read) uwtable
define internal i64 @RB_FL_TEST_RAW(i64 noundef %0, i64 noundef %1) #4 {
  %3 = alloca i64, align 8
  %4 = alloca i64, align 8
  store i64 %0, ptr %3, align 8, !tbaa !13
  store i64 %1, ptr %4, align 8, !tbaa !13
  %5 = load i64, ptr %3, align 8, !tbaa !13
  %6 = inttoptr i64 %5 to ptr
  %7 = getelementptr inbounds nuw %struct.RBasic, ptr %6, i32 0, i32 0
  %8 = load i64, ptr %7, align 8, !tbaa !107
  %9 = load i64, ptr %4, align 8, !tbaa !13
  %10 = and i64 %8, %9
  ret i64 %10
}

; Function Attrs: inlinehint nounwind sspstrong willreturn memory(read) uwtable
define internal i64 @RSTRING_LEN(i64 noundef %0) #4 {
  %2 = alloca i64, align 8
  store i64 %0, ptr %2, align 8, !tbaa !13
  %3 = load i64, ptr %2, align 8, !tbaa !13
  %4 = inttoptr i64 %3 to ptr
  %5 = getelementptr inbounds nuw %struct.RString, ptr %4, i32 0, i32 1
  %6 = load i64, ptr %5, align 8, !tbaa !114
  ret i64 %6
}

; Function Attrs: inlinehint nounwind sspstrong willreturn memory(read) uwtable
define internal zeroext i1 @RB_FL_ANY_RAW(i64 noundef %0, i64 noundef %1) #4 {
  %3 = alloca i64, align 8
  %4 = alloca i64, align 8
  store i64 %0, ptr %3, align 8, !tbaa !13
  store i64 %1, ptr %4, align 8, !tbaa !13
  %5 = load i64, ptr %3, align 8, !tbaa !13
  %6 = load i64, ptr %4, align 8, !tbaa !13
  %7 = call i64 @RB_FL_TEST_RAW(i64 noundef %5, i64 noundef %6) #25
  %8 = icmp ne i64 %7, 0
  ret i1 %8
}

; Function Attrs: inlinehint nounwind sspstrong willreturn memory(read, argmem: readwrite) uwtable
define internal void @rbimpl_rstring_getmem(ptr dead_on_unwind noalias writable sret(%struct.RString) align 8 %0, i64 noundef %1) #13 {
  %3 = alloca i64, align 8
  store i64 %1, ptr %3, align 8, !tbaa !13
  %4 = load i64, ptr %3, align 8, !tbaa !13
  %5 = call zeroext i1 @RB_FL_ANY_RAW(i64 noundef %4, i64 noundef 8192) #25
  br i1 %5, label %6, label %9

6:                                                ; preds = %2
  %7 = load i64, ptr %3, align 8, !tbaa !13
  %8 = inttoptr i64 %7 to ptr
  call void @llvm.memcpy.p0.p0.i64(ptr align 8 %0, ptr align 8 %8, i64 40, i1 false), !tbaa.struct !156
  br label %20

9:                                                ; preds = %2
  %10 = load i64, ptr %3, align 8, !tbaa !13
  %11 = call i64 @RSTRING_LEN(i64 noundef %10) #25
  %12 = getelementptr inbounds nuw %struct.RString, ptr %0, i32 0, i32 1
  store i64 %11, ptr %12, align 8, !tbaa !114
  %13 = load i64, ptr %3, align 8, !tbaa !13
  %14 = inttoptr i64 %13 to ptr
  %15 = getelementptr inbounds nuw %struct.RString, ptr %14, i32 0, i32 2
  %16 = getelementptr inbounds nuw %struct.anon.24, ptr %15, i32 0, i32 0
  %17 = getelementptr inbounds [1 x i8], ptr %16, i64 0, i64 0
  %18 = getelementptr inbounds nuw %struct.RString, ptr %0, i32 0, i32 2
  %19 = getelementptr inbounds nuw %struct.anon.22, ptr %18, i32 0, i32 0
  store ptr %17, ptr %19, align 8, !tbaa !15
  br label %20

20:                                               ; preds = %9, %6
  ret void
}

; Function Attrs: nounwind sspstrong uwtable
define hidden void @rb_yjit_dump_iseq_loc(ptr noundef %0, i32 noundef %1) #0 {
  %3 = alloca ptr, align 8
  %4 = alloca i32, align 4
  %5 = alloca ptr, align 8
  %6 = alloca i64, align 8
  %7 = alloca i64, align 8
  %8 = alloca %struct.RString, align 8
  %9 = alloca i64, align 8
  store ptr %0, ptr %3, align 8, !tbaa !87
  store i32 %1, ptr %4, align 4, !tbaa !11
  call void @llvm.lifetime.start.p0(i64 8, ptr %5) #5
  call void @llvm.lifetime.start.p0(i64 8, ptr %6) #5
  call void @llvm.lifetime.start.p0(i64 8, ptr %7) #5
  %10 = load ptr, ptr %3, align 8, !tbaa !87
  %11 = call i64 @rb_iseq_path(ptr noundef %10)
  store i64 %11, ptr %7, align 8, !tbaa !13
  call void @llvm.lifetime.start.p0(i64 40, ptr %8) #5
  %12 = load i64, ptr %7, align 8, !tbaa !13
  call void @rbimpl_rstring_getmem(ptr dead_on_unwind writable sret(%struct.RString) align 8 %8, i64 noundef %12) #29
  %13 = getelementptr inbounds nuw %struct.RString, ptr %8, i32 0, i32 2
  %14 = getelementptr inbounds nuw %struct.anon.22, ptr %13, i32 0, i32 0
  %15 = load ptr, ptr %14, align 8, !tbaa !15
  store ptr %15, ptr %5, align 8, !tbaa !25
  %16 = getelementptr inbounds nuw %struct.RString, ptr %8, i32 0, i32 1
  %17 = load i64, ptr %16, align 8, !tbaa !114
  store i64 %17, ptr %6, align 8, !tbaa !13
  store i64 %17, ptr %9, align 8, !tbaa !13
  call void @llvm.lifetime.end.p0(i64 40, ptr %8) #5
  %18 = load ptr, ptr @stderr, align 8, !tbaa !154
  %19 = load i64, ptr %6, align 8, !tbaa !13
  %20 = trunc i64 %19 to i32
  %21 = load ptr, ptr %5, align 8, !tbaa !25
  %22 = load ptr, ptr %3, align 8, !tbaa !87
  %23 = load i32, ptr %4, align 4, !tbaa !11
  %24 = zext i32 %23 to i64
  %25 = call i32 @rb_iseq_line_no(ptr noundef %22, i64 noundef %24)
  %26 = call i32 (ptr, i32, ptr, ...) @__fprintf_chk(ptr noundef %18, i32 noundef 1, ptr noundef @.str.21, ptr noundef @__func__.rb_yjit_dump_iseq_loc, i32 noundef %20, ptr noundef %21, i32 noundef %25)
  call void @llvm.lifetime.end.p0(i64 8, ptr %7) #5
  call void @llvm.lifetime.end.p0(i64 8, ptr %6) #5
  call void @llvm.lifetime.end.p0(i64 8, ptr %5) #5
  ret void
}