; Function Attrs: nounwind sspstrong uwtable
define hidden void @rb_yjit_dump_iseq_loc(ptr noundef %0, i32 noundef %1) local_unnamed_addr #0 {
  %3 = tail call i64 @rb_iseq_path(ptr noundef %0) #5
  %4 = inttoptr i64 %3 to ptr
  %5 = load i64, ptr %4, align 8, !tbaa !11, !noalias !164
  %6 = and i64 %5, 8192
  %.not.i = icmp eq i64 %6, 0
  %7 = getelementptr inbounds nuw i8, ptr %4, i64 24
  br i1 %.not.i, label %rbimpl_rstring_getmem.exit, label %8

8:                                                ; preds = %2
  %.sroa.5.0.copyload = load ptr, ptr %7, align 8
  br label %rbimpl_rstring_getmem.exit

rbimpl_rstring_getmem.exit:                       ; preds = %2, %8
  %.sroa.5.0 = phi ptr [ %.sroa.5.0.copyload, %8 ], [ %7, %2 ]
  %.sroa.3.0.in = getelementptr inbounds nuw i8, ptr %4, i64 16
  %.sroa.3.0 = load i64, ptr %.sroa.3.0.in, align 8, !tbaa !15
  %9 = load ptr, ptr @stderr, align 8, !tbaa !167
  %10 = trunc i64 %.sroa.3.0 to i32
  %11 = zext i32 %1 to i64
  %12 = tail call i32 @rb_iseq_line_no(ptr noundef %0, i64 noundef %11) #5
  %13 = tail call i32 (ptr, i32, ptr, ...) @__fprintf_chk(ptr noundef %9, i32 noundef 1, ptr noundef nonnull @.str.21, ptr noundef nonnull @__func__.rb_yjit_dump_iseq_loc, i32 noundef %10, ptr noundef %.sroa.5.0, i32 noundef %12) #5
  ret void
}